; ModuleID = 'source-C-CXX/9/1831.c'
source_filename = "source-C-CXX/9/1831.c"
target datalayout = "e-m:e-p270:32:32-p271:32:32-p272:64:64-i64:64-f80:128-n8:16:32:64-S128"
target triple = "x86_64-pc-linux-gnu"

@.str = private unnamed_addr constant [3 x i8] c"%d\00", align 1
@.str.1 = private unnamed_addr constant [4 x i8] c"%lf\00", align 1

; Function Attrs: nofree nounwind sspstrong uwtable
define dso_local void @main() local_unnamed_addr #0 {
  %1 = alloca i32, align 4
  %2 = alloca [100 x i32], align 16
  %3 = alloca [100 x double], align 16
  %4 = bitcast i32* %1 to i8*
  call void @llvm.lifetime.start.p0i8(i64 4, i8* nonnull %4) #5
  %5 = bitcast [100 x i32]* %2 to i8*
  call void @llvm.lifetime.start.p0i8(i64 400, i8* nonnull %5) #5
  %6 = bitcast [100 x double]* %3 to i8*
  call void @llvm.lifetime.start.p0i8(i64 800, i8* nonnull %6) #5
  call void @llvm.memset.p0i8.i64(i8* noundef nonnull align 16 dereferenceable(400) %5, i8 0, i64 400, i1 false)
  %7 = call i32 (i8*, ...) @__isoc99_scanf(i8* getelementptr inbounds ([3 x i8], [3 x i8]* @.str, i64 0, i64 0), i32* nonnull %1)
  %8 = load i32, i32* %1, align 4, !tbaa !5
  %9 = icmp sgt i32 %8, 0
  br i1 %9, label %14, label %10

10:                                               ; preds = %0
  %11 = add nsw i32 %8, -1
  %12 = sext i32 %11 to i64
  %13 = getelementptr inbounds [100 x i32], [100 x i32]* %2, i64 0, i64 %12
  store i32 1, i32* %13, align 4, !tbaa !5
  br label %158

14:                                               ; preds = %0, %14
  %15 = phi i64 [ %18, %14 ], [ 0, %0 ]
  %16 = getelementptr inbounds [100 x double], [100 x double]* %3, i64 0, i64 %15
  %17 = call i32 (i8*, ...) @__isoc99_scanf(i8* getelementptr inbounds ([4 x i8], [4 x i8]* @.str.1, i64 0, i64 0), double* nonnull %16)
  %18 = add nuw nsw i64 %15, 1
  %19 = load i32, i32* %1, align 4, !tbaa !5
  %20 = sext i32 %19 to i64
  %21 = icmp slt i64 %18, %20
  br i1 %21, label %14, label %22, !llvm.loop !9

22:                                               ; preds = %14
  %23 = add nsw i32 %19, -1
  %24 = sext i32 %23 to i64
  %25 = getelementptr inbounds [100 x i32], [100 x i32]* %2, i64 0, i64 %24
  store i32 1, i32* %25, align 4, !tbaa !5
  %26 = icmp sgt i32 %19, 0
  br i1 %26, label %27, label %158

27:                                               ; preds = %22
  %28 = zext i32 %19 to i64
  br label %29

29:                                               ; preds = %27, %143
  %30 = phi i32 [ 0, %27 ], [ %148, %143 ]
  %31 = phi i64 [ %28, %27 ], [ %32, %143 ]
  %32 = add nsw i64 %31, -1
  %33 = icmp slt i64 %31, %28
  br i1 %33, label %34, label %143

34:                                               ; preds = %29
  %35 = getelementptr inbounds [100 x double], [100 x double]* %3, i64 0, i64 %32
  %36 = load double, double* %35, align 8, !tbaa !11
  %37 = and i32 %30, 1
  %38 = icmp eq i32 %30, 1
  br i1 %38, label %129, label %39

39:                                               ; preds = %34
  %40 = and i32 %30, -2
  br label %111

41:                                               ; preds = %143
  br i1 %26, label %42, label %158

42:                                               ; preds = %41
  %43 = zext i32 %19 to i64
  %44 = icmp ult i32 %19, 8
  br i1 %44, label %108, label %45

45:                                               ; preds = %42
  %46 = and i64 %28, 4294967288
  %47 = add nsw i64 %46, -8
  %48 = lshr exact i64 %47, 3
  %49 = add nuw nsw i64 %48, 1
  %50 = and i64 %49, 1
  %51 = icmp eq i64 %47, 0
  br i1 %51, label %83, label %52

52:                                               ; preds = %45
  %53 = and i64 %49, 4611686018427387902
  br label %54

54:                                               ; preds = %54, %52
  %55 = phi i64 [ 0, %52 ], [ %80, %54 ]
  %56 = phi <4 x i32> [ zeroinitializer, %52 ], [ %78, %54 ]
  %57 = phi <4 x i32> [ zeroinitializer, %52 ], [ %79, %54 ]
  %58 = phi i64 [ %53, %52 ], [ %81, %54 ]
  %59 = getelementptr inbounds [100 x i32], [100 x i32]* %2, i64 0, i64 %55
  %60 = bitcast i32* %59 to <4 x i32>*
  %61 = load <4 x i32>, <4 x i32>* %60, align 16, !tbaa !5
  %62 = getelementptr inbounds i32, i32* %59, i64 4
  %63 = bitcast i32* %62 to <4 x i32>*
  %64 = load <4 x i32>, <4 x i32>* %63, align 16, !tbaa !5
  %65 = icmp sgt <4 x i32> %61, %56
  %66 = icmp sgt <4 x i32> %64, %57
  %67 = select <4 x i1> %65, <4 x i32> %61, <4 x i32> %56
  %68 = select <4 x i1> %66, <4 x i32> %64, <4 x i32> %57
  %69 = or i64 %55, 8
  %70 = getelementptr inbounds [100 x i32], [100 x i32]* %2, i64 0, i64 %69
  %71 = bitcast i32* %70 to <4 x i32>*
  %72 = load <4 x i32>, <4 x i32>* %71, align 16, !tbaa !5
  %73 = getelementptr inbounds i32, i32* %70, i64 4
  %74 = bitcast i32* %73 to <4 x i32>*
  %75 = load <4 x i32>, <4 x i32>* %74, align 16, !tbaa !5
  %76 = icmp sgt <4 x i32> %72, %67
  %77 = icmp sgt <4 x i32> %75, %68
  %78 = select <4 x i1> %76, <4 x i32> %72, <4 x i32> %67
  %79 = select <4 x i1> %77, <4 x i32> %75, <4 x i32> %68
  %80 = add nuw i64 %55, 16
  %81 = add i64 %58, -2
  %82 = icmp eq i64 %81, 0
  br i1 %82, label %83, label %54, !llvm.loop !13

83:                                               ; preds = %54, %45
  %84 = phi <4 x i32> [ undef, %45 ], [ %78, %54 ]
  %85 = phi <4 x i32> [ undef, %45 ], [ %79, %54 ]
  %86 = phi i64 [ 0, %45 ], [ %80, %54 ]
  %87 = phi <4 x i32> [ zeroinitializer, %45 ], [ %78, %54 ]
  %88 = phi <4 x i32> [ zeroinitializer, %45 ], [ %79, %54 ]
  %89 = icmp eq i64 %50, 0
  br i1 %89, label %101, label %90

90:                                               ; preds = %83
  %91 = getelementptr inbounds [100 x i32], [100 x i32]* %2, i64 0, i64 %86
  %92 = bitcast i32* %91 to <4 x i32>*
  %93 = load <4 x i32>, <4 x i32>* %92, align 16, !tbaa !5
  %94 = getelementptr inbounds i32, i32* %91, i64 4
  %95 = bitcast i32* %94 to <4 x i32>*
  %96 = load <4 x i32>, <4 x i32>* %95, align 16, !tbaa !5
  %97 = icmp sgt <4 x i32> %96, %88
  %98 = select <4 x i1> %97, <4 x i32> %96, <4 x i32> %88
  %99 = icmp sgt <4 x i32> %93, %87
  %100 = select <4 x i1> %99, <4 x i32> %93, <4 x i32> %87
  br label %101

101:                                              ; preds = %83, %90
  %102 = phi <4 x i32> [ %84, %83 ], [ %100, %90 ]
  %103 = phi <4 x i32> [ %85, %83 ], [ %98, %90 ]
  %104 = icmp sgt <4 x i32> %102, %103
  %105 = select <4 x i1> %104, <4 x i32> %102, <4 x i32> %103
  %106 = call i32 @llvm.vector.reduce.smax.v4i32(<4 x i32> %105)
  %107 = icmp eq i64 %46, %28
  br i1 %107, label %158, label %108

108:                                              ; preds = %42, %101
  %109 = phi i64 [ 0, %42 ], [ %46, %101 ]
  %110 = phi i32 [ 0, %42 ], [ %106, %101 ]
  br label %149

111:                                              ; preds = %166, %39
  %112 = phi i64 [ %31, %39 ], [ %168, %166 ]
  %113 = phi i32 [ 0, %39 ], [ %167, %166 ]
  %114 = phi i32 [ %40, %39 ], [ %169, %166 ]
  %115 = getelementptr inbounds [100 x double], [100 x double]* %3, i64 0, i64 %112
  %116 = load double, double* %115, align 8, !tbaa !11
  %117 = fcmp ugt double %116, %36
  br i1 %117, label %123, label %118

118:                                              ; preds = %111
  %119 = getelementptr inbounds [100 x i32], [100 x i32]* %2, i64 0, i64 %112
  %120 = load i32, i32* %119, align 4, !tbaa !5
  %121 = icmp sgt i32 %120, %113
  %122 = select i1 %121, i32 %120, i32 %113
  br label %123

123:                                              ; preds = %118, %111
  %124 = phi i32 [ %113, %111 ], [ %122, %118 ]
  %125 = add nsw i64 %112, 1
  %126 = getelementptr inbounds [100 x double], [100 x double]* %3, i64 0, i64 %125
  %127 = load double, double* %126, align 8, !tbaa !11
  %128 = fcmp ugt double %127, %36
  br i1 %128, label %166, label %161

129:                                              ; preds = %166, %34
  %130 = phi i32 [ undef, %34 ], [ %167, %166 ]
  %131 = phi i64 [ %31, %34 ], [ %168, %166 ]
  %132 = phi i32 [ 0, %34 ], [ %167, %166 ]
  %133 = icmp eq i32 %37, 0
  br i1 %133, label %143, label %134

134:                                              ; preds = %129
  %135 = getelementptr inbounds [100 x double], [100 x double]* %3, i64 0, i64 %131
  %136 = load double, double* %135, align 8, !tbaa !11
  %137 = fcmp ugt double %136, %36
  br i1 %137, label %143, label %138

138:                                              ; preds = %134
  %139 = getelementptr inbounds [100 x i32], [100 x i32]* %2, i64 0, i64 %131
  %140 = load i32, i32* %139, align 4, !tbaa !5
  %141 = icmp sgt i32 %140, %132
  %142 = select i1 %141, i32 %140, i32 %132
  br label %143

143:                                              ; preds = %129, %134, %138, %29
  %144 = phi i32 [ 0, %29 ], [ %130, %129 ], [ %132, %134 ], [ %142, %138 ]
  %145 = add nsw i32 %144, 1
  %146 = getelementptr inbounds [100 x i32], [100 x i32]* %2, i64 0, i64 %32
  store i32 %145, i32* %146, align 4, !tbaa !5
  %147 = icmp sgt i64 %31, 1
  %148 = add i32 %30, 1
  br i1 %147, label %29, label %41, !llvm.loop !15

149:                                              ; preds = %108, %149
  %150 = phi i64 [ %156, %149 ], [ %109, %108 ]
  %151 = phi i32 [ %155, %149 ], [ %110, %108 ]
  %152 = getelementptr inbounds [100 x i32], [100 x i32]* %2, i64 0, i64 %150
  %153 = load i32, i32* %152, align 4, !tbaa !5
  %154 = icmp sgt i32 %153, %151
  %155 = select i1 %154, i32 %153, i32 %151
  %156 = add nuw nsw i64 %150, 1
  %157 = icmp eq i64 %156, %43
  br i1 %157, label %158, label %149, !llvm.loop !16

158:                                              ; preds = %149, %101, %22, %10, %41
  %159 = phi i32 [ 0, %41 ], [ 0, %10 ], [ 0, %22 ], [ %106, %101 ], [ %155, %149 ]
  %160 = call i32 (i8*, ...) @printf(i8* nonnull dereferenceable(1) getelementptr inbounds ([3 x i8], [3 x i8]* @.str, i64 0, i64 0), i32 %159)
  call void @llvm.lifetime.end.p0i8(i64 800, i8* nonnull %6) #5
  call void @llvm.lifetime.end.p0i8(i64 400, i8* nonnull %5) #5
  call void @llvm.lifetime.end.p0i8(i64 4, i8* nonnull %4) #5
  ret void

161:                                              ; preds = %123
  %162 = getelementptr inbounds [100 x i32], [100 x i32]* %2, i64 0, i64 %125
  %163 = load i32, i32* %162, align 4, !tbaa !5
  %164 = icmp sgt i32 %163, %124
  %165 = select i1 %164, i32 %163, i32 %124
  br label %166

166:                                              ; preds = %161, %123
  %167 = phi i32 [ %124, %123 ], [ %165, %161 ]
  %168 = add nsw i64 %112, 2
  %169 = add i32 %114, -2
  %170 = icmp eq i32 %169, 0
  br i1 %170, label %129, label %111, !llvm.loop !18
}

; Function Attrs: argmemonly mustprogress nofree nosync nounwind willreturn
declare void @llvm.lifetime.start.p0i8(i64 immarg, i8* nocapture) #1

; Function Attrs: argmemonly mustprogress nofree nounwind willreturn writeonly
declare void @llvm.memset.p0i8.i64(i8* nocapture writeonly, i8, i64, i1 immarg) #2

; Function Attrs: nofree nounwind
declare noundef i32 @__isoc99_scanf(i8* nocapture noundef readonly, ...) local_unnamed_addr #3

; Function Attrs: nofree nounwind
declare noundef i32 @printf(i8* nocapture noundef readonly, ...) local_unnamed_addr #3

; Function Attrs: argmemonly mustprogress nofree nosync nounwind willreturn
declare void @llvm.lifetime.end.p0i8(i64 immarg, i8* nocapture) #1

; Function Attrs: nofree nosync nounwind readnone willreturn
declare i32 @llvm.vector.reduce.smax.v4i32(<4 x i32>) #4


!llvm.module.flags = !{!0, !1, !2, !3}
!llvm.ident = !{!4}

!0 = !{i32 1, !"wchar_size", i32 4}
!1 = !{i32 7, !"PIC Level", i32 2}
!2 = !{i32 7, !"PIE Level", i32 2}
!3 = !{i32 7, !"uwtable", i32 1}
!4 = !{!"clang version 13.0.0"}
!5 = !{!6, !6, i64 0}
!6 = !{!"int", !7, i64 0}
!7 = !{!"omnipotent char", !8, i64 0}
!8 = !{!"Simple C/C++ TBAA"}
!9 = distinct !{!9, !10}
!10 = !{!"llvm.loop.mustprogress"}
!11 = !{!12, !12, i64 0}
!12 = !{!"double", !7, i64 0}
!13 = distinct !{!13, !10, !14}
!14 = !{!"llvm.loop.isvectorized", i32 1}
!15 = distinct !{!15, !10}
!16 = distinct !{!16, !10, !17, !14}
!17 = !{!"llvm.loop.unroll.runtime.disable"}
!18 = distinct !{!18, !10}
